; Function Attrs: mustprogress nofree norecurse nosync nounwind willreturn memory(none) uwtable
define i32 @lv_clamp_width(i32 noundef %0, i32 noundef %1, i32 noundef %2, i32 noundef %3) local_unnamed_addr #4 {
  %5 = and i32 %1, 1610612736
  %6 = icmp eq i32 %5, 536870912
  br i1 %6, label %7, label %15

7:                                                ; preds = %4
  %8 = and i32 %1, -1610612737
  %.not = icmp eq i32 %8, 536870911
  br i1 %.not, label %15, label %9

9:                                                ; preds = %7
  %10 = icmp sgt i32 %8, 268435455
  %11 = sub nsw i32 268435455, %8
  %12 = select i1 %10, i32 %11, i32 %8
  %13 = mul nsw i32 %12, %3
  %14 = sdiv i32 %13, 100
  br label %15

15:                                               ; preds = %9, %7, %4
  %.0 = phi i32 [ %14, %9 ], [ %1, %7 ], [ %1, %4 ]
  %16 = and i32 %2, 1610612736
  %17 = icmp eq i32 %16, 536870912
  br i1 %17, label %18, label %26

18:                                               ; preds = %15
  %19 = and i32 %2, -1610612737
  %.not26 = icmp eq i32 %19, 536870911
  br i1 %.not26, label %26, label %20

20:                                               ; preds = %18
  %21 = icmp sgt i32 %19, 268435455
  %22 = sub nsw i32 268435455, %19
  %23 = select i1 %21, i32 %22, i32 %19
  %24 = mul nsw i32 %23, %3
  %25 = sdiv i32 %24, 100
  br label %26

26:                                               ; preds = %20, %18, %15
  %.022 = phi i32 [ %25, %20 ], [ %2, %18 ], [ %2, %15 ]
  %27 = tail call i32 @llvm.smin.i32(i32 %0, i32 %.022)
  %.0. = tail call i32 @llvm.smax.i32(i32 %.0, i32 %27)
  ret i32 %.0.
}